target datalayout = "e-m:e-p270:32:32-p271:32:32-p272:64:64-i64:64-i128:128-f80:128-n8:16:32:64-S128"
target triple = "x86_64-pc-linux-gnu"

; Function Attrs: inlinehint nounwind uwtable
define internal i32 @constant_time_msb(i32 noundef %0) #2 {
  %2 = alloca i32, align 4
  store i32 %0, ptr %2, align 4, !tbaa !13
  %3 = load i32, ptr %2, align 4, !tbaa !13
  %4 = ashr i32 %3, 31
  ret i32 %4
}

; Function Attrs: inlinehint nounwind uwtable
define internal i32 @constant_time_select(i32 noundef %0, i32 noundef %1, i32 noundef %2) #2 {
  %4 = alloca i32, align 4
  %5 = alloca i32, align 4
  %6 = alloca i32, align 4
  store i32 %0, ptr %4, align 4, !tbaa !13
  store i32 %1, ptr %5, align 4, !tbaa !13
  store i32 %2, ptr %6, align 4, !tbaa !13
  %7 = load i32, ptr %4, align 4, !tbaa !13
  %8 = load i32, ptr %5, align 4, !tbaa !13
  %9 = and i32 %7, %8
  %10 = load i32, ptr %4, align 4, !tbaa !13
  %11 = xor i32 %10, -1
  %12 = load i32, ptr %6, align 4, !tbaa !13
  %13 = and i32 %11, %12
  %14 = or i32 %9, %13
  ret i32 %14
}

; Function Attrs: inlinehint nounwind uwtable
define internal i32 @constant_time_is_zero(i32 noundef %0) #2 {
  %2 = alloca i32, align 4
  store i32 %0, ptr %2, align 4, !tbaa !13
  %3 = load i32, ptr %2, align 4, !tbaa !13
  %4 = xor i32 %3, -1
  %5 = load i32, ptr %2, align 4, !tbaa !13
  %6 = sub i32 %5, 1
  %7 = and i32 %4, %6
  %8 = call i32 @constant_time_msb(i32 noundef %7)
  ret i32 %8
}

; Function Attrs: inlinehint nounwind uwtable
define internal i32 @constant_time_lt(i32 noundef %0, i32 noundef %1) #2 {
  %3 = alloca i32, align 4
  %4 = alloca i32, align 4
  store i32 %0, ptr %3, align 4, !tbaa !13
  store i32 %1, ptr %4, align 4, !tbaa !13
  %5 = load i32, ptr %3, align 4, !tbaa !13
  %6 = load i32, ptr %3, align 4, !tbaa !13
  %7 = load i32, ptr %4, align 4, !tbaa !13
  %8 = xor i32 %6, %7
  %9 = load i32, ptr %3, align 4, !tbaa !13
  %10 = load i32, ptr %4, align 4, !tbaa !13
  %11 = sub i32 %9, %10
  %12 = load i32, ptr %3, align 4, !tbaa !13
  %13 = xor i32 %11, %12
  %14 = or i32 %8, %13
  %15 = xor i32 %5, %14
  %16 = call i32 @constant_time_msb(i32 noundef %15)
  ret i32 %16
}

; Function Attrs: inlinehint nounwind uwtable
define internal i32 @constant_time_select_int(i32 noundef %0, i32 noundef %1, i32 noundef %2) #2 {
  %4 = alloca i32, align 4
  %5 = alloca i32, align 4
  %6 = alloca i32, align 4
  store i32 %0, ptr %4, align 4, !tbaa !13
  store i32 %1, ptr %5, align 4, !tbaa !13
  store i32 %2, ptr %6, align 4, !tbaa !13
  %7 = load i32, ptr %4, align 4, !tbaa !13
  %8 = load i32, ptr %5, align 4, !tbaa !13
  %9 = load i32, ptr %6, align 4, !tbaa !13
  %10 = call i32 @constant_time_select(i32 noundef %7, i32 noundef %8, i32 noundef %9)
  ret i32 %10
}

; Function Attrs: inlinehint nounwind uwtable
define internal i32 @constant_time_eq(i32 noundef %0, i32 noundef %1) #2 {
  %3 = alloca i32, align 4
  %4 = alloca i32, align 4
  store i32 %0, ptr %3, align 4, !tbaa !13
  store i32 %1, ptr %4, align 4, !tbaa !13
  %5 = load i32, ptr %3, align 4, !tbaa !13
  %6 = load i32, ptr %4, align 4, !tbaa !13
  %7 = xor i32 %5, %6
  %8 = call i32 @constant_time_is_zero(i32 noundef %7)
  ret i32 %8
}

; Function Attrs: inlinehint nounwind uwtable
define internal zeroext i8 @constant_time_ge_8(i32 noundef %0, i32 noundef %1) #2 {
  %3 = alloca i32, align 4
  %4 = alloca i32, align 4
  store i32 %0, ptr %3, align 4, !tbaa !13
  store i32 %1, ptr %4, align 4, !tbaa !13
  %5 = load i32, ptr %3, align 4, !tbaa !13
  %6 = load i32, ptr %4, align 4, !tbaa !13
  %7 = call i32 @constant_time_ge(i32 noundef %5, i32 noundef %6)
  %8 = trunc i32 %7 to i8
  ret i8 %8
}

; Function Attrs: inlinehint nounwind uwtable
define internal i32 @constant_time_ge(i32 noundef %0, i32 noundef %1) #2 {
  %3 = alloca i32, align 4
  %4 = alloca i32, align 4
  store i32 %0, ptr %3, align 4, !tbaa !13
  store i32 %1, ptr %4, align 4, !tbaa !13
  %5 = load i32, ptr %3, align 4, !tbaa !13
  %6 = load i32, ptr %4, align 4, !tbaa !13
  %7 = call i32 @constant_time_lt(i32 noundef %5, i32 noundef %6)
  %8 = xor i32 %7, -1
  ret i32 %8
}

; Function Attrs: nounwind uwtable
define hidden i32 @EVP_tls_cbc_remove_padding(ptr noundef %0, ptr noundef %1, i32 noundef %2, i32 noundef %3, i32 noundef %4) #0 {
  %6 = alloca i32, align 4
  %7 = alloca ptr, align 8
  %8 = alloca ptr, align 8
  %9 = alloca i32, align 4
  %10 = alloca i32, align 4
  %11 = alloca i32, align 4
  %12 = alloca i32, align 4
  %13 = alloca i32, align 4
  %14 = alloca i32, align 4
  %15 = alloca i32, align 4
  %16 = alloca i32, align 4
  %17 = alloca i32, align 4
  %18 = alloca i8, align 1
  %19 = alloca i8, align 1
  store ptr %0, ptr %7, align 8, !tbaa !6
  store ptr %1, ptr %8, align 8, !tbaa !11
  store i32 %2, ptr %9, align 4, !tbaa !13
  store i32 %3, ptr %10, align 4, !tbaa !13
  store i32 %4, ptr %11, align 4, !tbaa !13
  call void @llvm.lifetime.start.p0(i64 4, ptr %12) #6
  call void @llvm.lifetime.start.p0(i64 4, ptr %13) #6
  call void @llvm.lifetime.start.p0(i64 4, ptr %14) #6
  call void @llvm.lifetime.start.p0(i64 4, ptr %15) #6
  call void @llvm.lifetime.start.p0(i64 4, ptr %16) #6
  %20 = load i32, ptr %11, align 4, !tbaa !13
  %21 = add i32 1, %20
  store i32 %21, ptr %16, align 4, !tbaa !13
  %22 = load i32, ptr %16, align 4, !tbaa !13
  %23 = load i32, ptr %9, align 4, !tbaa !13
  %24 = icmp ugt i32 %22, %23
  br i1 %24, label %25, label %26

25:                                               ; preds = %5
  store i32 0, ptr %6, align 4
  store i32 1, ptr %17, align 4
  br label %88

26:                                               ; preds = %5
  %27 = load ptr, ptr %8, align 8, !tbaa !11
  %28 = load i32, ptr %9, align 4, !tbaa !13
  %29 = sub i32 %28, 1
  %30 = zext i32 %29 to i64
  %31 = getelementptr inbounds nuw i8, ptr %27, i64 %30
  %32 = load i8, ptr %31, align 1, !tbaa !15
  %33 = zext i8 %32 to i32
  store i32 %33, ptr %12, align 4, !tbaa !13
  %34 = load i32, ptr %9, align 4, !tbaa !13
  %35 = load i32, ptr %16, align 4, !tbaa !13
  %36 = load i32, ptr %12, align 4, !tbaa !13
  %37 = add i32 %35, %36
  %38 = call i32 @constant_time_ge(i32 noundef %34, i32 noundef %37)
  store i32 %38, ptr %13, align 4, !tbaa !13
  store i32 256, ptr %14, align 4, !tbaa !13
  %39 = load i32, ptr %14, align 4, !tbaa !13
  %40 = load i32, ptr %9, align 4, !tbaa !13
  %41 = icmp ugt i32 %39, %40
  br i1 %41, label %42, label %44

42:                                               ; preds = %26
  %43 = load i32, ptr %9, align 4, !tbaa !13
  store i32 %43, ptr %14, align 4, !tbaa !13
  br label %44

44:                                               ; preds = %42, %26
  store i32 0, ptr %15, align 4, !tbaa !13
  br label %45

45:                                               ; preds = %71, %44
  %46 = load i32, ptr %15, align 4, !tbaa !13
  %47 = load i32, ptr %14, align 4, !tbaa !13
  %48 = icmp ult i32 %46, %47
  br i1 %48, label %49, label %74

49:                                               ; preds = %45
  call void @llvm.lifetime.start.p0(i64 1, ptr %18) #6
  %50 = load i32, ptr %12, align 4, !tbaa !13
  %51 = load i32, ptr %15, align 4, !tbaa !13
  %52 = call zeroext i8 @constant_time_ge_8(i32 noundef %50, i32 noundef %51)
  store i8 %52, ptr %18, align 1, !tbaa !15
  call void @llvm.lifetime.start.p0(i64 1, ptr %19) #6
  %53 = load ptr, ptr %8, align 8, !tbaa !11
  %54 = load i32, ptr %9, align 4, !tbaa !13
  %55 = sub i32 %54, 1
  %56 = load i32, ptr %15, align 4, !tbaa !13
  %57 = sub i32 %55, %56
  %58 = zext i32 %57 to i64
  %59 = getelementptr inbounds nuw i8, ptr %53, i64 %58
  %60 = load i8, ptr %59, align 1, !tbaa !15
  store i8 %60, ptr %19, align 1, !tbaa !15
  %61 = load i8, ptr %18, align 1, !tbaa !15
  %62 = zext i8 %61 to i32
  %63 = load i32, ptr %12, align 4, !tbaa !13
  %64 = load i8, ptr %19, align 1, !tbaa !15
  %65 = zext i8 %64 to i32
  %66 = xor i32 %63, %65
  %67 = and i32 %62, %66
  %68 = xor i32 %67, -1
  %69 = load i32, ptr %13, align 4, !tbaa !13
  %70 = and i32 %69, %68
  store i32 %70, ptr %13, align 4, !tbaa !13
  call void @llvm.lifetime.end.p0(i64 1, ptr %19) #6
  call void @llvm.lifetime.end.p0(i64 1, ptr %18) #6
  br label %71

71:                                               ; preds = %49
  %72 = load i32, ptr %15, align 4, !tbaa !13
  %73 = add i32 %72, 1
  store i32 %73, ptr %15, align 4, !tbaa !13
  br label %45, !llvm.loop !16

74:                                               ; preds = %45
  %75 = load i32, ptr %13, align 4, !tbaa !13
  %76 = and i32 %75, 255
  %77 = call i32 @constant_time_eq(i32 noundef 255, i32 noundef %76)
  store i32 %77, ptr %13, align 4, !tbaa !13
  %78 = load i32, ptr %13, align 4, !tbaa !13
  %79 = load i32, ptr %12, align 4, !tbaa !13
  %80 = add i32 %79, 1
  %81 = and i32 %78, %80
  store i32 %81, ptr %12, align 4, !tbaa !13
  %82 = load i32, ptr %9, align 4, !tbaa !13
  %83 = load i32, ptr %12, align 4, !tbaa !13
  %84 = sub i32 %82, %83
  %85 = load ptr, ptr %7, align 8, !tbaa !6
  store i32 %84, ptr %85, align 4, !tbaa !13
  %86 = load i32, ptr %13, align 4, !tbaa !13
  %87 = call i32 @constant_time_select_int(i32 noundef %86, i32 noundef 1, i32 noundef -1)
  store i32 %87, ptr %6, align 4
  store i32 1, ptr %17, align 4
  br label %88

88:                                               ; preds = %74, %25
  call void @llvm.lifetime.end.p0(i64 4, ptr %16) #6
  call void @llvm.lifetime.end.p0(i64 4, ptr %15) #6
  call void @llvm.lifetime.end.p0(i64 4, ptr %14) #6
  call void @llvm.lifetime.end.p0(i64 4, ptr %13) #6
  call void @llvm.lifetime.end.p0(i64 4, ptr %12) #6
  %89 = load i32, ptr %6, align 4
  ret i32 %89
}