; Function Attrs: nofree norecurse nosync nounwind memory(argmem: readwrite) uwtable
define hidden range(i32 -1, 2) i32 @EVP_tls_cbc_remove_padding(ptr noundef writeonly captures(none) %0, ptr noundef readonly captures(none) %1, i32 noundef %2, i32 noundef %3, i32 noundef %4) local_unnamed_addr #0 {
  %6 = add i32 %4, 1
  %7 = icmp ugt i32 %6, %2
  br i1 %7, label %35, label %8

8:                                                ; preds = %5
  %9 = add i32 %2, -1
  %10 = zext i32 %9 to i64
  %11 = getelementptr inbounds nuw i8, ptr %1, i64 %10
  %12 = load i8, ptr %11, align 1, !tbaa !6
  %13 = zext i8 %12 to i32
  %14 = add i32 %6, %13
  %15 = xor i32 %14, %2
  %16 = sub i32 %2, %14
  %17 = xor i32 %16, %2
  %18 = or i32 %17, %15
  %19 = xor i32 %18, %2
  %isnotneg.i = icmp sgt i32 %19, -1
  %20 = sext i1 %isnotneg.i to i32
  %.not38 = icmp eq i32 %2, 0
  br i1 %.not38, label %._crit_edge, label %.lr.ph.preheader

.lr.ph.preheader:                                 ; preds = %8
  %spec.select = tail call i32 @llvm.umin.i32(i32 %2, i32 256)
  %21 = zext i8 %12 to i64
  %wide.trip.count = zext nneg i32 %spec.select to i64
  br label %.lr.ph

.lr.ph:                                           ; preds = %.lr.ph.preheader, %.lr.ph
  %indvars.iv = phi i64 [ 0, %.lr.ph.preheader ], [ %indvars.iv.next, %.lr.ph ]
  %.03037 = phi i32 [ %20, %.lr.ph.preheader ], [ %31, %.lr.ph ]
  %isnotneg.i.i.not = icmp samesign ugt i64 %indvars.iv, %21
  %22 = trunc nuw nsw i64 %indvars.iv to i32
  %23 = sub i32 %9, %22
  %24 = zext i32 %23 to i64
  %25 = getelementptr inbounds nuw i8, ptr %1, i64 %24
  %26 = load i8, ptr %25, align 1, !tbaa !6
  %27 = xor i8 %26, %12
  %28 = zext i8 %27 to i32
  %29 = xor i32 %28, -1
  %30 = select i1 %isnotneg.i.i.not, i32 -1, i32 %29
  %31 = and i32 %30, %.03037
  %indvars.iv.next = add nuw nsw i64 %indvars.iv, 1
  %exitcond.not = icmp eq i64 %indvars.iv.next, %wide.trip.count
  br i1 %exitcond.not, label %._crit_edge, label %.lr.ph, !llvm.loop !9

._crit_edge:                                      ; preds = %.lr.ph, %8
  %.030.lcssa = phi i32 [ %20, %8 ], [ %31, %.lr.ph ]
  %32 = and i32 %.030.lcssa, 255
  %.not = icmp eq i32 %32, 255
  %.neg = xor i32 %13, -1
  %.neg35 = select i1 %.not, i32 %.neg, i32 0
  %33 = add i32 %.neg35, %2
  store i32 %33, ptr %0, align 4, !tbaa !11
  %34 = select i1 %.not, i32 1, i32 -1
  br label %35

35:                                               ; preds = %5, %._crit_edge
  %.0 = phi i32 [ %34, %._crit_edge ], [ 0, %5 ]
  ret i32 %.0
}